target datalayout = "e-m:e-p270:32:32-p271:32:32-p272:64:64-i64:64-i128:128-f80:128-n8:16:32:64-S128"
target triple = "x86_64-pc-linux-gnu"

%struct.MultirangeType = type { i32, i32, i32 }

; Function Attrs: nounwind uwtable
define dso_local void @multirange_deserialize(ptr noundef %0, ptr noundef %1, ptr noundef %2, ptr noundef %3) #0 {
  %5 = alloca ptr, align 8
  %6 = alloca ptr, align 8
  %7 = alloca ptr, align 8
  %8 = alloca ptr, align 8
  %9 = alloca i32, align 4
  store ptr %0, ptr %5, align 8
  store ptr %1, ptr %6, align 8
  store ptr %2, ptr %7, align 8
  store ptr %3, ptr %8, align 8
  %10 = load ptr, ptr %6, align 8
  %11 = getelementptr inbounds nuw %struct.MultirangeType, ptr %10, i32 0, i32 2
  %12 = load i32, ptr %11, align 4
  %13 = load ptr, ptr %7, align 8
  store i32 %12, ptr %13, align 4
  %14 = load ptr, ptr %7, align 8
  %15 = load i32, ptr %14, align 4
  %16 = icmp sgt i32 %15, 0
  br i1 %16, label %17, label %43

17:                                               ; preds = %4
  call void @llvm.lifetime.start.p0(i64 4, ptr %9) #9
  %18 = load ptr, ptr %7, align 8
  %19 = load i32, ptr %18, align 4
  %20 = sext i32 %19 to i64
  %21 = mul i64 %20, 8
  %22 = call ptr @palloc(i64 noundef %21)
  %23 = load ptr, ptr %8, align 8
  store ptr %22, ptr %23, align 8
  store i32 0, ptr %9, align 4
  br label %24

24:                                               ; preds = %39, %17
  %25 = load i32, ptr %9, align 4
  %26 = load ptr, ptr %7, align 8
  %27 = load i32, ptr %26, align 4
  %28 = icmp slt i32 %25, %27
  br i1 %28, label %29, label %42

29:                                               ; preds = %24
  %30 = load ptr, ptr %5, align 8
  %31 = load ptr, ptr %6, align 8
  %32 = load i32, ptr %9, align 4
  %33 = call ptr @multirange_get_range(ptr noundef %30, ptr noundef %31, i32 noundef %32)
  %34 = load ptr, ptr %8, align 8
  %35 = load ptr, ptr %34, align 8
  %36 = load i32, ptr %9, align 4
  %37 = sext i32 %36 to i64
  %38 = getelementptr inbounds ptr, ptr %35, i64 %37
  store ptr %33, ptr %38, align 8
  br label %39

39:                                               ; preds = %29
  %40 = load i32, ptr %9, align 4
  %41 = add i32 %40, 1
  store i32 %41, ptr %9, align 4
  br label %24, !llvm.loop !9

42:                                               ; preds = %24
  call void @llvm.lifetime.end.p0(i64 4, ptr %9) #9
  br label %45

43:                                               ; preds = %4
  %44 = load ptr, ptr %8, align 8
  store ptr null, ptr %44, align 8
  br label %45

45:                                               ; preds = %43, %42
  ret void
}