; Function Attrs: nounwind uwtable
define dso_local void @multirange_deserialize(ptr noundef readonly captures(none) %0, ptr noundef %1, ptr noundef captures(none) initializes((0, 4)) %2, ptr noundef captures(none) initializes((0, 8)) %3) local_unnamed_addr #0 {
  %5 = getelementptr inbounds nuw i8, ptr %1, i64 8
  %6 = load i32, ptr %5, align 4
  store i32 %6, ptr %2, align 4
  %7 = icmp sgt i32 %6, 0
  br i1 %7, label %8, label %21

8:                                                ; preds = %4
  %9 = zext nneg i32 %6 to i64
  %10 = shl nuw nsw i64 %9, 3
  %11 = tail call ptr @palloc(i64 noundef %10) #11
  store ptr %11, ptr %3, align 8
  %12 = load i32, ptr %2, align 4
  %13 = icmp sgt i32 %12, 0
  br i1 %13, label %.lr.ph, label %.loopexit

.lr.ph:                                           ; preds = %8, %.lr.ph
  %indvars.iv = phi i64 [ %indvars.iv.next, %.lr.ph ], [ 0, %8 ]
  %14 = trunc nuw nsw i64 %indvars.iv to i32
  %15 = tail call ptr @multirange_get_range(ptr noundef %0, ptr noundef %1, i32 noundef %14)
  %16 = load ptr, ptr %3, align 8
  %17 = getelementptr inbounds nuw ptr, ptr %16, i64 %indvars.iv
  store ptr %15, ptr %17, align 8
  %indvars.iv.next = add nuw nsw i64 %indvars.iv, 1
  %18 = load i32, ptr %2, align 4
  %19 = sext i32 %18 to i64
  %20 = icmp slt i64 %indvars.iv.next, %19
  br i1 %20, label %.lr.ph, label %.loopexit, !llvm.loop !11

21:                                               ; preds = %4
  store ptr null, ptr %3, align 8
  br label %.loopexit

.loopexit:                                        ; preds = %.lr.ph, %8, %21
  ret void
}